target datalayout = "e-m:e-p270:32:32-p271:32:32-p272:64:64-i64:64-i128:128-f80:128-n8:16:32:64-S128"
target triple = "x86_64-pc-linux-gnu"

@_ZN6icu_77L11MONTHLENGTHE = internal constant [12 x i32] [i32 31, i32 28, i32 31, i32 30, i32 31, i32 30, i32 31, i32 31, i32 30, i32 31, i32 30, i32 31], align 16

; Function Attrs: inlinehint mustprogress nounwind uwtable
define internal noundef signext i8 @_ZL9U_FAILURE10UErrorCode(i32 noundef %0) #3 {
  %2 = alloca i32, align 4
  store i32 %0, ptr %2, align 4, !tbaa !45
  %3 = load i32, ptr %2, align 4, !tbaa !45
  %4 = icmp sgt i32 %3, 0
  %5 = zext i1 %4 to i8
  ret i8 %5
}

; Function Attrs: mustprogress uwtable
define void @_ZNK6icu_779VTimeZone27writeZonePropsByDOW_LEQ_DOMERNS_9VTZWriterEaRKNS_13UnicodeStringEiiiiiddR10UErrorCode(ptr noundef nonnull align 8 dereferenceable(288) %0, ptr noundef nonnull align 8 dereferenceable(8) %1, i8 noundef signext %2, ptr noundef nonnull align 8 dereferenceable(64) %3, i32 noundef %4, i32 noundef %5, i32 noundef %6, i32 noundef %7, i32 noundef %8, double noundef %9, double noundef %10, ptr noundef nonnull align 4 dereferenceable(4) %11) #1 align 2 {
  %13 = alloca ptr, align 8
  %14 = alloca ptr, align 8
  %15 = alloca i8, align 1
  %16 = alloca ptr, align 8
  %17 = alloca i32, align 4
  %18 = alloca i32, align 4
  %19 = alloca i32, align 4
  %20 = alloca i32, align 4
  %21 = alloca i32, align 4
  %22 = alloca double, align 8
  %23 = alloca double, align 8
  %24 = alloca ptr, align 8
  store ptr %0, ptr %13, align 8, !tbaa !29
  store ptr %1, ptr %14, align 8, !tbaa !3
  store i8 %2, ptr %15, align 1, !tbaa !28
  store ptr %3, ptr %16, align 8, !tbaa !8
  store i32 %4, ptr %17, align 4, !tbaa !18
  store i32 %5, ptr %18, align 4, !tbaa !18
  store i32 %6, ptr %19, align 4, !tbaa !18
  store i32 %7, ptr %20, align 4, !tbaa !18
  store i32 %8, ptr %21, align 4, !tbaa !18
  store double %9, ptr %22, align 8, !tbaa !77
  store double %10, ptr %23, align 8, !tbaa !77
  store ptr %11, ptr %24, align 8, !tbaa !55
  %25 = load ptr, ptr %13, align 8
  %26 = load ptr, ptr %24, align 8, !tbaa !55
  %27 = load i32, ptr %26, align 4, !tbaa !45
  %28 = call noundef signext i8 @_ZL9U_FAILURE10UErrorCode(i32 noundef %27)
  %29 = icmp ne i8 %28, 0
  br i1 %29, label %30, label %31

30:                                               ; preds = %12
  br label %111

31:                                               ; preds = %12
  %32 = load i32, ptr %20, align 4, !tbaa !18
  %33 = srem i32 %32, 7
  %34 = icmp eq i32 %33, 0
  br i1 %34, label %35, label %48

35:                                               ; preds = %31
  %36 = load ptr, ptr %14, align 8, !tbaa !3
  %37 = load i8, ptr %15, align 1, !tbaa !28
  %38 = load ptr, ptr %16, align 8, !tbaa !8
  %39 = load i32, ptr %17, align 4, !tbaa !18
  %40 = load i32, ptr %18, align 4, !tbaa !18
  %41 = load i32, ptr %19, align 4, !tbaa !18
  %42 = load i32, ptr %20, align 4, !tbaa !18
  %43 = sdiv i32 %42, 7
  %44 = load i32, ptr %21, align 4, !tbaa !18
  %45 = load double, ptr %22, align 8, !tbaa !77
  %46 = load double, ptr %23, align 8, !tbaa !77
  %47 = load ptr, ptr %24, align 8, !tbaa !55
  call void @_ZNK6icu_779VTimeZone19writeZonePropsByDOWERNS_9VTZWriterEaRKNS_13UnicodeStringEiiiiiddR10UErrorCode(ptr noundef nonnull align 8 dereferenceable(288) %25, ptr noundef nonnull align 8 dereferenceable(8) %36, i8 noundef signext %37, ptr noundef nonnull align 8 dereferenceable(64) %38, i32 noundef %39, i32 noundef %40, i32 noundef %41, i32 noundef %43, i32 noundef %44, double noundef %45, double noundef %46, ptr noundef nonnull align 4 dereferenceable(4) %47)
  br label %111

48:                                               ; preds = %31
  %49 = load i32, ptr %19, align 4, !tbaa !18
  %50 = icmp ne i32 %49, 1
  br i1 %50, label %51, label %80

51:                                               ; preds = %48
  %52 = load i32, ptr %19, align 4, !tbaa !18
  %53 = sext i32 %52 to i64
  %54 = getelementptr inbounds [12 x i32], ptr @_ZN6icu_77L11MONTHLENGTHE, i64 0, i64 %53
  %55 = load i32, ptr %54, align 4, !tbaa !18
  %56 = load i32, ptr %20, align 4, !tbaa !18
  %57 = sub nsw i32 %55, %56
  %58 = srem i32 %57, 7
  %59 = icmp eq i32 %58, 0
  br i1 %59, label %60, label %80

60:                                               ; preds = %51
  %61 = load ptr, ptr %14, align 8, !tbaa !3
  %62 = load i8, ptr %15, align 1, !tbaa !28
  %63 = load ptr, ptr %16, align 8, !tbaa !8
  %64 = load i32, ptr %17, align 4, !tbaa !18
  %65 = load i32, ptr %18, align 4, !tbaa !18
  %66 = load i32, ptr %19, align 4, !tbaa !18
  %67 = load i32, ptr %19, align 4, !tbaa !18
  %68 = sext i32 %67 to i64
  %69 = getelementptr inbounds [12 x i32], ptr @_ZN6icu_77L11MONTHLENGTHE, i64 0, i64 %68
  %70 = load i32, ptr %69, align 4, !tbaa !18
  %71 = load i32, ptr %20, align 4, !tbaa !18
  %72 = sub nsw i32 %70, %71
  %73 = sdiv i32 %72, 7
  %74 = add nsw i32 %73, 1
  %75 = mul nsw i32 -1, %74
  %76 = load i32, ptr %21, align 4, !tbaa !18
  %77 = load double, ptr %22, align 8, !tbaa !77
  %78 = load double, ptr %23, align 8, !tbaa !77
  %79 = load ptr, ptr %24, align 8, !tbaa !55
  call void @_ZNK6icu_779VTimeZone19writeZonePropsByDOWERNS_9VTZWriterEaRKNS_13UnicodeStringEiiiiiddR10UErrorCode(ptr noundef nonnull align 8 dereferenceable(288) %25, ptr noundef nonnull align 8 dereferenceable(8) %61, i8 noundef signext %62, ptr noundef nonnull align 8 dereferenceable(64) %63, i32 noundef %64, i32 noundef %65, i32 noundef %66, i32 noundef %75, i32 noundef %76, double noundef %77, double noundef %78, ptr noundef nonnull align 4 dereferenceable(4) %79)
  br label %110

80:                                               ; preds = %51, %48
  %81 = load i32, ptr %19, align 4, !tbaa !18
  %82 = icmp eq i32 %81, 1
  br i1 %82, label %83, label %96

83:                                               ; preds = %80
  %84 = load i32, ptr %20, align 4, !tbaa !18
  %85 = icmp eq i32 %84, 29
  br i1 %85, label %86, label %96

86:                                               ; preds = %83
  %87 = load ptr, ptr %14, align 8, !tbaa !3
  %88 = load i8, ptr %15, align 1, !tbaa !28
  %89 = load ptr, ptr %16, align 8, !tbaa !8
  %90 = load i32, ptr %17, align 4, !tbaa !18
  %91 = load i32, ptr %18, align 4, !tbaa !18
  %92 = load i32, ptr %21, align 4, !tbaa !18
  %93 = load double, ptr %22, align 8, !tbaa !77
  %94 = load double, ptr %23, align 8, !tbaa !77
  %95 = load ptr, ptr %24, align 8, !tbaa !55
  call void @_ZNK6icu_779VTimeZone19writeZonePropsByDOWERNS_9VTZWriterEaRKNS_13UnicodeStringEiiiiiddR10UErrorCode(ptr noundef nonnull align 8 dereferenceable(288) %25, ptr noundef nonnull align 8 dereferenceable(8) %87, i8 noundef signext %88, ptr noundef nonnull align 8 dereferenceable(64) %89, i32 noundef %90, i32 noundef %91, i32 noundef 1, i32 noundef -1, i32 noundef %92, double noundef %93, double noundef %94, ptr noundef nonnull align 4 dereferenceable(4) %95)
  br label %109

96:                                               ; preds = %83, %80
  %97 = load ptr, ptr %14, align 8, !tbaa !3
  %98 = load i8, ptr %15, align 1, !tbaa !28
  %99 = load ptr, ptr %16, align 8, !tbaa !8
  %100 = load i32, ptr %17, align 4, !tbaa !18
  %101 = load i32, ptr %18, align 4, !tbaa !18
  %102 = load i32, ptr %19, align 4, !tbaa !18
  %103 = load i32, ptr %20, align 4, !tbaa !18
  %104 = sub nsw i32 %103, 6
  %105 = load i32, ptr %21, align 4, !tbaa !18
  %106 = load double, ptr %22, align 8, !tbaa !77
  %107 = load double, ptr %23, align 8, !tbaa !77
  %108 = load ptr, ptr %24, align 8, !tbaa !55
  call void @_ZNK6icu_779VTimeZone27writeZonePropsByDOW_GEQ_DOMERNS_9VTZWriterEaRKNS_13UnicodeStringEiiiiiddR10UErrorCode(ptr noundef nonnull align 8 dereferenceable(288) %25, ptr noundef nonnull align 8 dereferenceable(8) %97, i8 noundef signext %98, ptr noundef nonnull align 8 dereferenceable(64) %99, i32 noundef %100, i32 noundef %101, i32 noundef %102, i32 noundef %104, i32 noundef %105, double noundef %106, double noundef %107, ptr noundef nonnull align 4 dereferenceable(4) %108)
  br label %109

109:                                              ; preds = %96, %86
  br label %110

110:                                              ; preds = %109, %60
  br label %111

111:                                              ; preds = %30, %110, %35
  ret void
}