; Function Attrs: mustprogress uwtable
define void @_ZNK6icu_779VTimeZone27writeZonePropsByDOW_LEQ_DOMERNS_9VTZWriterEaRKNS_13UnicodeStringEiiiiiddR10UErrorCode(ptr noundef nonnull readnone align 8 captures(none) dereferenceable(288) %0, ptr noundef nonnull readonly align 8 captures(none) dereferenceable(8) %1, i8 noundef signext %2, ptr noundef nonnull align 8 dereferenceable(64) %3, i32 noundef %4, i32 noundef %5, i32 noundef %6, i32 noundef %7, i32 noundef %8, double noundef %9, double noundef %10, ptr noundef nonnull align 4 dereferenceable(4) %11) local_unnamed_addr #2 align 2 {
  %13 = load i32, ptr %11, align 4, !tbaa !31
  %14 = icmp slt i32 %13, 1
  br i1 %14, label %15, label %34

15:                                               ; preds = %12
  %16 = srem i32 %7, 7
  %17 = sdiv i32 %7, 7
  %18 = icmp eq i32 %16, 0
  br i1 %18, label %19, label %20

19:                                               ; preds = %15
  tail call void @_ZNK6icu_779VTimeZone19writeZonePropsByDOWERNS_9VTZWriterEaRKNS_13UnicodeStringEiiiiiddR10UErrorCode(ptr noundef nonnull align 8 dereferenceable(288) %0, ptr noundef nonnull align 8 dereferenceable(8) %1, i8 noundef signext %2, ptr noundef nonnull align 8 dereferenceable(64) %3, i32 noundef %4, i32 noundef %5, i32 noundef %6, i32 noundef %17, i32 noundef %8, double noundef %9, double noundef %10, ptr noundef nonnull align 4 dereferenceable(4) %11)
  br label %34

20:                                               ; preds = %15
  %.not51 = icmp eq i32 %6, 1
  br i1 %.not51, label %30, label %21

21:                                               ; preds = %20
  %22 = sext i32 %6 to i64
  %23 = getelementptr inbounds [12 x i32], ptr @_ZN6icu_77L11MONTHLENGTHE, i64 0, i64 %22
  %24 = load i32, ptr %23, align 4, !tbaa !42
  %25 = sub nsw i32 %24, %7
  %26 = srem i32 %25, 7
  %27 = icmp eq i32 %26, 0
  br i1 %27, label %28, label %.thread

28:                                               ; preds = %21
  %.neg = sdiv i32 %25, -7
  %29 = add nsw i32 %.neg, -1
  tail call void @_ZNK6icu_779VTimeZone19writeZonePropsByDOWERNS_9VTZWriterEaRKNS_13UnicodeStringEiiiiiddR10UErrorCode(ptr noundef nonnull align 8 dereferenceable(288) %0, ptr noundef nonnull align 8 dereferenceable(8) %1, i8 noundef signext %2, ptr noundef nonnull align 8 dereferenceable(64) %3, i32 noundef %4, i32 noundef %5, i32 noundef %6, i32 noundef %29, i32 noundef %8, double noundef %9, double noundef %10, ptr noundef nonnull align 4 dereferenceable(4) %11)
  br label %34

30:                                               ; preds = %20
  %31 = icmp eq i32 %7, 29
  br i1 %31, label %32, label %.thread

32:                                               ; preds = %30
  tail call void @_ZNK6icu_779VTimeZone19writeZonePropsByDOWERNS_9VTZWriterEaRKNS_13UnicodeStringEiiiiiddR10UErrorCode(ptr noundef nonnull align 8 dereferenceable(288) %0, ptr noundef nonnull align 8 dereferenceable(8) %1, i8 noundef signext %2, ptr noundef nonnull align 8 dereferenceable(64) %3, i32 noundef %4, i32 noundef %5, i32 noundef 1, i32 noundef -1, i32 noundef %8, double noundef %9, double noundef %10, ptr noundef nonnull align 4 dereferenceable(4) %11)
  br label %34

.thread:                                          ; preds = %21, %30
  %33 = add nsw i32 %7, -6
  tail call void @_ZNK6icu_779VTimeZone27writeZonePropsByDOW_GEQ_DOMERNS_9VTZWriterEaRKNS_13UnicodeStringEiiiiiddR10UErrorCode(ptr noundef nonnull align 8 dereferenceable(288) %0, ptr noundef nonnull align 8 dereferenceable(8) %1, i8 noundef signext %2, ptr noundef nonnull align 8 dereferenceable(64) %3, i32 noundef %4, i32 noundef %5, i32 noundef %6, i32 noundef %33, i32 noundef %8, double noundef %9, double noundef %10, ptr noundef nonnull align 4 dereferenceable(4) %11)
  br label %34

34:                                               ; preds = %28, %.thread, %32, %12, %19
  ret void
}